; Function Attrs: mustprogress nofree norecurse nosync nounwind willreturn memory(read, inaccessiblemem: none) uwtable
define noundef zeroext i1 @_ZNK4base8FilePath10IsAbsoluteEv(ptr noundef nonnull readonly align 8 captures(none) dereferenceable(32) %0) local_unnamed_addr #8 align 2 {
  %2 = getelementptr inbounds nuw i8, ptr %0, i64 8
  %3 = load i64, ptr %2, align 8, !tbaa !9
  %.not.i = icmp eq i64 %3, 0
  br i1 %.not.i, label %_ZN4base12_GLOBAL__N_114IsPathAbsoluteENS_16BasicStringPieceINSt7__cxx1112basic_stringIcSt11char_traitsIcESaIcEEEEE.exit, label %4

4:                                                ; preds = %1
  %5 = load ptr, ptr %0, align 8, !tbaa !13
  %6 = load i8, ptr %5, align 1, !tbaa !12
  %7 = load i64, ptr @_ZN4base8FilePath17kSeparatorsLengthE, align 8, !tbaa !14
  %8 = add i64 %7, -1
  %.not7.not.i.i = icmp eq i64 %8, 0
  br i1 %.not7.not.i.i, label %_ZN4base12_GLOBAL__N_114IsPathAbsoluteENS_16BasicStringPieceINSt7__cxx1112basic_stringIcSt11char_traitsIcESaIcEEEEE.exit, label %.lr.ph.i.i

.lr.ph.i.i:                                       ; preds = %4, %.lr.ph.i.i
  %.058.i.i = phi i64 [ %12, %.lr.ph.i.i ], [ 0, %4 ]
  %9 = getelementptr inbounds nuw [0 x i8], ptr @_ZN4base8FilePath11kSeparatorsE, i64 0, i64 %.058.i.i
  %10 = load i8, ptr %9, align 1, !tbaa !12
  %11 = icmp eq i8 %6, %10
  %12 = add nuw i64 %.058.i.i, 1
  %exitcond.not.i.i = icmp eq i64 %12, %8
  %or.cond = select i1 %11, i1 true, i1 %exitcond.not.i.i
  br i1 %or.cond, label %_ZN4base12_GLOBAL__N_114IsPathAbsoluteENS_16BasicStringPieceINSt7__cxx1112basic_stringIcSt11char_traitsIcESaIcEEEEE.exit, label %.lr.ph.i.i, !llvm.loop !15

_ZN4base12_GLOBAL__N_114IsPathAbsoluteENS_16BasicStringPieceINSt7__cxx1112basic_stringIcSt11char_traitsIcESaIcEEEEE.exit: ; preds = %.lr.ph.i.i, %1, %4
  %13 = phi i1 [ false, %1 ], [ false, %4 ], [ %11, %.lr.ph.i.i ]
  ret i1 %13
}